target datalayout = "e-m:e-p270:32:32-p271:32:32-p272:64:64-i64:64-i128:128-f80:128-n8:16:32:64-S128"
target triple = "x86_64-pc-linux-gnu"

%"class.llvm::SmallVectorBase" = type { ptr, i32, i32 }
%"struct.llvm::IRPosition" = type { %"class.llvm::PointerIntPair", ptr }
%"class.llvm::PointerIntPair" = type { %"struct.llvm::detail::PunnedPointer" }
%"struct.llvm::detail::PunnedPointer" = type { [8 x i8] }
%"struct.llvm::AADepGraphNode" = type { ptr, %"class.llvm::SmallSetVector" }
%"class.llvm::SmallSetVector" = type { %"class.llvm::SetVector" }
%"class.llvm::SetVector" = type { %"class.llvm::DenseSet", %"class.llvm::SmallVector.39" }
%"class.llvm::DenseSet" = type { %"class.llvm::detail::DenseSetImpl" }
%"class.llvm::detail::DenseSetImpl" = type { %"class.llvm::DenseMap.36" }
%"class.llvm::DenseMap.36" = type <{ ptr, i32, i32, i32, [4 x i8] }>
%"class.llvm::SmallVector.39" = type { %"class.llvm::SmallVectorImpl.40", %"struct.llvm::SmallVectorStorage.43" }
%"class.llvm::SmallVectorImpl.40" = type { %"class.llvm::SmallVectorTemplateBase.41" }
%"class.llvm::SmallVectorTemplateBase.41" = type { %"class.llvm::SmallVectorTemplateCommon.42" }
%"class.llvm::SmallVectorTemplateCommon.42" = type { %"class.llvm::SmallVectorBase" }
%"struct.llvm::SmallVectorStorage.43" = type { [16 x i8] }
%"struct.llvm::StateWrapper.base" = type <{ %"struct.llvm::AbstractAttribute", %"struct.llvm::BooleanState.base" }>
%"struct.llvm::AbstractAttribute" = type { %"struct.llvm::AADepGraphNode", %"struct.llvm::IRPosition" }
%"struct.llvm::BooleanState.base" = type { %"struct.llvm::IntegerStateBase.base" }
%"struct.llvm::IntegerStateBase.base" = type <{ %"struct.llvm::AbstractState", i8, i8 }>
%"struct.llvm::AbstractState" = type { ptr }
%"class.std::optional.838" = type { %"struct.std::_Optional_base.839" }
%"struct.std::_Optional_base.839" = type { %"struct.std::_Optional_payload.841" }
%"struct.std::_Optional_payload.841" = type { %"struct.std::_Optional_payload_base.base.843", [7 x i8] }
%"struct.std::_Optional_payload_base.base.843" = type <{ %"union.std::_Optional_payload_base<llvm::Value *>::_Storage", i8 }>
%"union.std::_Optional_payload_base<llvm::Value *>::_Storage" = type { ptr }
%"struct.llvm::IntegerStateBase" = type <{ %"struct.llvm::AbstractState", i8, i8, [6 x i8] }>
%"struct.std::_Optional_payload_base.842" = type <{ %"union.std::_Optional_payload_base<llvm::Value *>::_Storage", i8, [7 x i8] }>
%"struct.(anonymous namespace)::AAFoldRuntimeCallCallSiteReturned" = type { %"struct.(anonymous namespace)::AAFoldRuntimeCall.base", [6 x i8], %"class.std::optional.838", i32, [4 x i8] }
%"struct.(anonymous namespace)::AAFoldRuntimeCall.base" = type { %"struct.llvm::StateWrapper.base" }

; Function Attrs: mustprogress nounwind uwtable
define linkonce_odr void @_ZSt10_ConstructIPN4llvm5ValueEJDnEEvPT_DpOT0_(ptr noundef %0, ptr noundef nonnull align 8 dereferenceable(8) %1) #1 comdat {
  %3 = alloca ptr, align 8
  %4 = alloca ptr, align 8
  store ptr %0, ptr %3, align 8
  store ptr %1, ptr %4, align 8
  %5 = load ptr, ptr %3, align 8
  store ptr null, ptr %5, align 8
  ret void
}

; Function Attrs: mustprogress nounwind uwtable
define linkonce_odr hidden void @_ZNSt22_Optional_payload_baseIPN4llvm5ValueEE12_M_constructIJDnEEEvDpOT_(ptr noundef nonnull align 8 dereferenceable(9) %0, ptr noundef nonnull align 8 dereferenceable(8) %1) #1 comdat align 2 {
  %3 = alloca ptr, align 8
  %4 = alloca ptr, align 8
  store ptr %0, ptr %3, align 8
  store ptr %1, ptr %4, align 8
  %5 = load ptr, ptr %3, align 8
  %6 = getelementptr inbounds nuw %"struct.std::_Optional_payload_base.842", ptr %5, i32 0, i32 0
  %7 = load ptr, ptr %4, align 8
  call void @_ZSt10_ConstructIPN4llvm5ValueEJDnEEvPT_DpOT0_(ptr noundef %6, ptr noundef nonnull align 8 dereferenceable(8) %7)
  %8 = getelementptr inbounds nuw %"struct.std::_Optional_payload_base.842", ptr %5, i32 0, i32 1
  store i8 1, ptr %8, align 8
  ret void
}

; Function Attrs: mustprogress nounwind uwtable
define linkonce_odr hidden noundef nonnull align 8 dereferenceable(8) ptr @_ZNSt22_Optional_payload_baseIPN4llvm5ValueEE6_M_getEv(ptr noundef nonnull align 8 dereferenceable(9) %0) #1 comdat align 2 {
  %2 = alloca ptr, align 8
  store ptr %0, ptr %2, align 8
  %3 = load ptr, ptr %2, align 8
  %4 = getelementptr inbounds nuw %"struct.std::_Optional_payload_base.842", ptr %3, i32 0, i32 0
  ret ptr %4
}

; Function Attrs: mustprogress nounwind uwtable
define linkonce_odr hidden void @_ZNSt19_Optional_base_implIPN4llvm5ValueESt14_Optional_baseIS2_Lb1ELb1EEE12_M_constructIJDnEEEvDpOT_(ptr noundef nonnull align 1 dereferenceable(1) %0, ptr noundef nonnull align 8 dereferenceable(8) %1) #1 comdat align 2 {
  %3 = alloca ptr, align 8
  %4 = alloca ptr, align 8
  store ptr %0, ptr %3, align 8
  store ptr %1, ptr %4, align 8
  %5 = load ptr, ptr %3, align 8
  %6 = getelementptr inbounds nuw %"struct.std::_Optional_base.839", ptr %5, i32 0, i32 0
  %7 = load ptr, ptr %4, align 8
  call void @_ZNSt22_Optional_payload_baseIPN4llvm5ValueEE12_M_constructIJDnEEEvDpOT_(ptr noundef nonnull align 8 dereferenceable(9) %6, ptr noundef nonnull align 8 dereferenceable(8) %7) #2
  ret void
}

; Function Attrs: mustprogress nounwind uwtable
define linkonce_odr hidden noundef nonnull align 8 dereferenceable(8) ptr @_ZNSt19_Optional_base_implIPN4llvm5ValueESt14_Optional_baseIS2_Lb1ELb1EEE6_M_getEv(ptr noundef nonnull align 1 dereferenceable(1) %0) #1 comdat align 2 {
  %2 = alloca ptr, align 8
  store ptr %0, ptr %2, align 8
  %3 = load ptr, ptr %2, align 8
  br label %4

4:                                                ; preds = %1
  br label %5

5:                                                ; preds = %4
  %6 = getelementptr inbounds nuw %"struct.std::_Optional_base.839", ptr %3, i32 0, i32 0
  %7 = call noundef nonnull align 8 dereferenceable(8) ptr @_ZNSt22_Optional_payload_baseIPN4llvm5ValueEE6_M_getEv(ptr noundef nonnull align 8 dereferenceable(9) %6) #2
  ret ptr %7
}

; Function Attrs: mustprogress nounwind uwtable
define linkonce_odr hidden noundef zeroext i1 @_ZNKSt19_Optional_base_implIPN4llvm5ValueESt14_Optional_baseIS2_Lb1ELb1EEE13_M_is_engagedEv(ptr noundef nonnull align 1 dereferenceable(1) %0) #1 comdat align 2 {
  %2 = alloca ptr, align 8
  store ptr %0, ptr %2, align 8
  %3 = load ptr, ptr %2, align 8
  %4 = getelementptr inbounds nuw %"struct.std::_Optional_base.839", ptr %3, i32 0, i32 0
  %5 = getelementptr inbounds nuw %"struct.std::_Optional_payload_base.842", ptr %4, i32 0, i32 1
  %6 = load i8, ptr %5, align 8
  %7 = trunc i8 %6 to i1
  ret i1 %7
}

; Function Attrs: mustprogress nounwind uwtable
define linkonce_odr hidden noundef i32 @_ZN4llvm16IntegerStateBaseIbLb1ELb0EE27indicatePessimisticFixpointEv(ptr noundef nonnull align 8 dereferenceable(10) %0) unnamed_addr #1 comdat align 2 {
  %2 = alloca ptr, align 8
  store ptr %0, ptr %2, align 8
  %3 = load ptr, ptr %2, align 8
  %4 = getelementptr inbounds nuw %"struct.llvm::IntegerStateBase", ptr %3, i32 0, i32 1
  %5 = load i8, ptr %4, align 8
  %6 = trunc i8 %5 to i1
  %7 = getelementptr inbounds nuw %"struct.llvm::IntegerStateBase", ptr %3, i32 0, i32 2
  %8 = zext i1 %6 to i8
  store i8 %8, ptr %7, align 1
  ret i32 0
}

; Function Attrs: mustprogress nounwind uwtable
define linkonce_odr hidden noundef nonnull align 8 dereferenceable(16) ptr @_ZNSt8optionalIPN4llvm5ValueEEaSIDnEENSt9enable_ifIX7__and_vISt6__not_ISt7is_sameIS3_NSt9remove_cvINSt16remove_referenceIT_E4typeEE4typeEEES6_ISt6__and_IJSt9is_scalarIS2_ES7_IS2_NSt5decayISA_E4typeEEEEESt16is_constructibleIS2_JSA_EESt13is_assignableIRS2_SA_EEERS3_E4typeEOSA_(ptr noundef nonnull align 8 dereferenceable(16) %0, ptr noundef nonnull align 8 dereferenceable(8) %1) #1 comdat align 2 {
  %3 = alloca ptr, align 8
  %4 = alloca ptr, align 8
  store ptr %0, ptr %3, align 8
  store ptr %1, ptr %4, align 8
  %5 = load ptr, ptr %3, align 8
  %6 = call noundef zeroext i1 @_ZNKSt19_Optional_base_implIPN4llvm5ValueESt14_Optional_baseIS2_Lb1ELb1EEE13_M_is_engagedEv(ptr noundef nonnull align 1 dereferenceable(1) %5) #2
  br i1 %6, label %7, label %9

7:                                                ; preds = %2
  %8 = call noundef nonnull align 8 dereferenceable(8) ptr @_ZNSt19_Optional_base_implIPN4llvm5ValueESt14_Optional_baseIS2_Lb1ELb1EEE6_M_getEv(ptr noundef nonnull align 1 dereferenceable(1) %5) #2
  store ptr null, ptr %8, align 8
  br label %11

9:                                                ; preds = %2
  %10 = load ptr, ptr %4, align 8
  call void @_ZNSt19_Optional_base_implIPN4llvm5ValueESt14_Optional_baseIS2_Lb1ELb1EEE12_M_constructIJDnEEEvDpOT_(ptr noundef nonnull align 1 dereferenceable(1) %5, ptr noundef nonnull align 8 dereferenceable(8) %10) #2
  br label %11

11:                                               ; preds = %9, %7
  ret ptr %5
}

; Function Attrs: mustprogress nounwind uwtable
define internal noundef i32 @_ZN12_GLOBAL__N_133AAFoldRuntimeCallCallSiteReturned27indicatePessimisticFixpointEv(ptr noundef nonnull align 8 dereferenceable(116) %0) unnamed_addr #1 align 2 {
  %2 = alloca ptr, align 8
  %3 = alloca ptr, align 8
  store ptr %0, ptr %2, align 8
  %4 = load ptr, ptr %2, align 8
  store ptr null, ptr %3, align 8
  %5 = getelementptr inbounds nuw %"struct.(anonymous namespace)::AAFoldRuntimeCallCallSiteReturned", ptr %4, i32 0, i32 2
  %6 = call noundef nonnull align 8 dereferenceable(16) ptr @_ZNSt8optionalIPN4llvm5ValueEEaSIDnEENSt9enable_ifIX7__and_vISt6__not_ISt7is_sameIS3_NSt9remove_cvINSt16remove_referenceIT_E4typeEE4typeEEES6_ISt6__and_IJSt9is_scalarIS2_ES7_IS2_NSt5decayISA_E4typeEEEEESt16is_constructibleIS2_JSA_EESt13is_assignableIRS2_SA_EEERS3_E4typeEOSA_(ptr noundef nonnull align 8 dereferenceable(16) %5, ptr noundef nonnull align 8 dereferenceable(8) %3) #2
  %7 = getelementptr inbounds i8, ptr %4, i64 80
  %8 = call noundef i32 @_ZN4llvm16IntegerStateBaseIbLb1ELb0EE27indicatePessimisticFixpointEv(ptr noundef nonnull align 8 dereferenceable(10) %7)
  ret i32 %8
}

; Function Attrs: nounwind uwtable
define internal noundef i32 @_ZThn80_N12_GLOBAL__N_133AAFoldRuntimeCallCallSiteReturned27indicatePessimisticFixpointEv(ptr noundef %0) unnamed_addr #0 align 2 {
  %2 = alloca ptr, align 8
  store ptr %0, ptr %2, align 8
  %3 = load ptr, ptr %2, align 8
  %4 = getelementptr inbounds i8, ptr %3, i64 -80
  %5 = tail call noundef i32 @_ZN12_GLOBAL__N_133AAFoldRuntimeCallCallSiteReturned27indicatePessimisticFixpointEv(ptr noundef nonnull align 8 dereferenceable(116) %4)
  ret i32 %5
}