; Function Attrs: mustprogress nofree norecurse nosync nounwind willreturn memory(argmem: readwrite) uwtable
define internal noundef i32 @_ZThn80_N12_GLOBAL__N_133AAFoldRuntimeCallCallSiteReturned27indicatePessimisticFixpointEv(ptr nocapture noundef %0) unnamed_addr #17 align 2 {
  %2 = getelementptr inbounds i8, ptr %0, i64 24
  %3 = load i8, ptr %2, align 8
  %4 = trunc i8 %3 to i1
  br i1 %4, label %_ZN12_GLOBAL__N_133AAFoldRuntimeCallCallSiteReturned27indicatePessimisticFixpointEv.exit, label %5

5:                                                ; preds = %1
  store i8 1, ptr %2, align 8
  br label %_ZN12_GLOBAL__N_133AAFoldRuntimeCallCallSiteReturned27indicatePessimisticFixpointEv.exit

_ZN12_GLOBAL__N_133AAFoldRuntimeCallCallSiteReturned27indicatePessimisticFixpointEv.exit: ; preds = %1, %5
  %6 = getelementptr inbounds i8, ptr %0, i64 16
  store ptr null, ptr %6, align 8
  %7 = getelementptr inbounds i8, ptr %0, i64 8
  %8 = load i8, ptr %7, align 8
  %9 = getelementptr inbounds i8, ptr %0, i64 9
  %10 = and i8 %8, 1
  store i8 %10, ptr %9, align 1
  ret i32 0
}